target datalayout = "e-m:e-p270:32:32-p271:32:32-p272:64:64-i64:64-i128:128-f80:128-n8:16:32:64-S128"
target triple = "x86_64-pc-linux-gnu"

@.str.2 = private unnamed_addr constant [2 x i8] c",\00", align 1
@slurm_bb_flags2str.bb_str = internal global [1024 x i8] zeroinitializer, align 16
@.str.417 = private unnamed_addr constant [18 x i8] c"DisablePersistent\00", align 1
@.str.418 = private unnamed_addr constant [12 x i8] c"EmulateCray\00", align 1
@.str.419 = private unnamed_addr constant [17 x i8] c"EnablePersistent\00", align 1
@.str.420 = private unnamed_addr constant [12 x i8] c"PrivateData\00", align 1
@.str.421 = private unnamed_addr constant [16 x i8] c"TeardownFailure\00", align 1

; Function Attrs: nounwind uwtable
define dso_local ptr @slurm_bb_flags2str(i32 noundef %0) #0 {
  %2 = alloca i32, align 4
  store i32 %0, ptr %2, align 4
  store i8 0, ptr @slurm_bb_flags2str.bb_str, align 16
  %3 = load i32, ptr %2, align 4
  %4 = and i32 %3, 1
  %5 = icmp ne i32 %4, 0
  br i1 %5, label %6, label %13

6:                                                ; preds = %1
  %7 = load i8, ptr @slurm_bb_flags2str.bb_str, align 16
  %8 = icmp ne i8 %7, 0
  br i1 %8, label %9, label %11

9:                                                ; preds = %6
  %10 = call ptr @strcat(ptr noundef @slurm_bb_flags2str.bb_str, ptr noundef @.str.2) #11
  br label %11

11:                                               ; preds = %9, %6
  %12 = call ptr @strcat(ptr noundef @slurm_bb_flags2str.bb_str, ptr noundef @.str.417) #11
  br label %13

13:                                               ; preds = %11, %1
  %14 = load i32, ptr %2, align 4
  %15 = and i32 %14, 4
  %16 = icmp ne i32 %15, 0
  br i1 %16, label %17, label %24

17:                                               ; preds = %13
  %18 = load i8, ptr @slurm_bb_flags2str.bb_str, align 16
  %19 = icmp ne i8 %18, 0
  br i1 %19, label %20, label %22

20:                                               ; preds = %17
  %21 = call ptr @strcat(ptr noundef @slurm_bb_flags2str.bb_str, ptr noundef @.str.2) #11
  br label %22

22:                                               ; preds = %20, %17
  %23 = call ptr @strcat(ptr noundef @slurm_bb_flags2str.bb_str, ptr noundef @.str.418) #11
  br label %24

24:                                               ; preds = %22, %13
  %25 = load i32, ptr %2, align 4
  %26 = and i32 %25, 2
  %27 = icmp ne i32 %26, 0
  br i1 %27, label %28, label %35

28:                                               ; preds = %24
  %29 = load i8, ptr @slurm_bb_flags2str.bb_str, align 16
  %30 = icmp ne i8 %29, 0
  br i1 %30, label %31, label %33

31:                                               ; preds = %28
  %32 = call ptr @strcat(ptr noundef @slurm_bb_flags2str.bb_str, ptr noundef @.str.2) #11
  br label %33

33:                                               ; preds = %31, %28
  %34 = call ptr @strcat(ptr noundef @slurm_bb_flags2str.bb_str, ptr noundef @.str.419) #11
  br label %35

35:                                               ; preds = %33, %24
  %36 = load i32, ptr %2, align 4
  %37 = and i32 %36, 8
  %38 = icmp ne i32 %37, 0
  br i1 %38, label %39, label %46

39:                                               ; preds = %35
  %40 = load i8, ptr @slurm_bb_flags2str.bb_str, align 16
  %41 = icmp ne i8 %40, 0
  br i1 %41, label %42, label %44

42:                                               ; preds = %39
  %43 = call ptr @strcat(ptr noundef @slurm_bb_flags2str.bb_str, ptr noundef @.str.2) #11
  br label %44

44:                                               ; preds = %42, %39
  %45 = call ptr @strcat(ptr noundef @slurm_bb_flags2str.bb_str, ptr noundef @.str.420) #11
  br label %46

46:                                               ; preds = %44, %35
  %47 = load i32, ptr %2, align 4
  %48 = and i32 %47, 16
  %49 = icmp ne i32 %48, 0
  br i1 %49, label %50, label %57

50:                                               ; preds = %46
  %51 = load i8, ptr @slurm_bb_flags2str.bb_str, align 16
  %52 = icmp ne i8 %51, 0
  br i1 %52, label %53, label %55

53:                                               ; preds = %50
  %54 = call ptr @strcat(ptr noundef @slurm_bb_flags2str.bb_str, ptr noundef @.str.2) #11
  br label %55

55:                                               ; preds = %53, %50
  %56 = call ptr @strcat(ptr noundef @slurm_bb_flags2str.bb_str, ptr noundef @.str.421) #11
  br label %57

57:                                               ; preds = %55, %46
  ret ptr @slurm_bb_flags2str.bb_str
}