; Function Attrs: mustprogress nofree nounwind willreturn memory(readwrite, argmem: none, inaccessiblemem: none) uwtable
define dso_local noundef nonnull ptr @slurm_bb_flags2str(i32 noundef %0) local_unnamed_addr #18 {
  store i8 0, ptr @slurm_bb_flags2str.bb_str, align 16
  %2 = and i32 %0, 1
  %.not = icmp eq i32 %2, 0
  br i1 %.not, label %4, label %3

3:                                                ; preds = %1
  %strlen = tail call i64 @strlen(ptr nonnull dereferenceable(1) @slurm_bb_flags2str.bb_str)
  %endptr = getelementptr inbounds i8, ptr @slurm_bb_flags2str.bb_str, i64 %strlen
  tail call void @llvm.memcpy.p0.p0.i64(ptr noundef nonnull align 1 dereferenceable(18) %endptr, ptr noundef nonnull align 1 dereferenceable(18) @.str.417, i64 18, i1 false)
  br label %4

4:                                                ; preds = %3, %1
  %5 = and i32 %0, 4
  %.not5 = icmp eq i32 %5, 0
  br i1 %.not5, label %10, label %6

6:                                                ; preds = %4
  %7 = load i8, ptr @slurm_bb_flags2str.bb_str, align 16
  %.not6 = icmp eq i8 %7, 0
  br i1 %.not6, label %9, label %8

8:                                                ; preds = %6
  %strlen7 = tail call i64 @strlen(ptr nonnull dereferenceable(1) @slurm_bb_flags2str.bb_str)
  %endptr8 = getelementptr inbounds i8, ptr @slurm_bb_flags2str.bb_str, i64 %strlen7
  store i16 44, ptr %endptr8, align 1
  br label %9

9:                                                ; preds = %8, %6
  %strlen9 = tail call i64 @strlen(ptr nonnull dereferenceable(1) @slurm_bb_flags2str.bb_str)
  %endptr10 = getelementptr inbounds i8, ptr @slurm_bb_flags2str.bb_str, i64 %strlen9
  tail call void @llvm.memcpy.p0.p0.i64(ptr noundef nonnull align 1 dereferenceable(12) %endptr10, ptr noundef nonnull align 1 dereferenceable(12) @.str.418, i64 12, i1 false)
  br label %10

10:                                               ; preds = %9, %4
  %11 = and i32 %0, 2
  %.not11 = icmp eq i32 %11, 0
  br i1 %.not11, label %16, label %12

12:                                               ; preds = %10
  %13 = load i8, ptr @slurm_bb_flags2str.bb_str, align 16
  %.not12 = icmp eq i8 %13, 0
  br i1 %.not12, label %15, label %14

14:                                               ; preds = %12
  %strlen13 = tail call i64 @strlen(ptr nonnull dereferenceable(1) @slurm_bb_flags2str.bb_str)
  %endptr14 = getelementptr inbounds i8, ptr @slurm_bb_flags2str.bb_str, i64 %strlen13
  store i16 44, ptr %endptr14, align 1
  br label %15

15:                                               ; preds = %14, %12
  %strlen15 = tail call i64 @strlen(ptr nonnull dereferenceable(1) @slurm_bb_flags2str.bb_str)
  %endptr16 = getelementptr inbounds i8, ptr @slurm_bb_flags2str.bb_str, i64 %strlen15
  tail call void @llvm.memcpy.p0.p0.i64(ptr noundef nonnull align 1 dereferenceable(17) %endptr16, ptr noundef nonnull align 1 dereferenceable(17) @.str.419, i64 17, i1 false)
  br label %16

16:                                               ; preds = %15, %10
  %17 = and i32 %0, 8
  %.not17 = icmp eq i32 %17, 0
  br i1 %.not17, label %22, label %18

18:                                               ; preds = %16
  %19 = load i8, ptr @slurm_bb_flags2str.bb_str, align 16
  %.not18 = icmp eq i8 %19, 0
  br i1 %.not18, label %21, label %20

20:                                               ; preds = %18
  %strlen19 = tail call i64 @strlen(ptr nonnull dereferenceable(1) @slurm_bb_flags2str.bb_str)
  %endptr20 = getelementptr inbounds i8, ptr @slurm_bb_flags2str.bb_str, i64 %strlen19
  store i16 44, ptr %endptr20, align 1
  br label %21

21:                                               ; preds = %20, %18
  %strlen21 = tail call i64 @strlen(ptr nonnull dereferenceable(1) @slurm_bb_flags2str.bb_str)
  %endptr22 = getelementptr inbounds i8, ptr @slurm_bb_flags2str.bb_str, i64 %strlen21
  tail call void @llvm.memcpy.p0.p0.i64(ptr noundef nonnull align 1 dereferenceable(12) %endptr22, ptr noundef nonnull align 1 dereferenceable(12) @.str.420, i64 12, i1 false)
  br label %22

22:                                               ; preds = %21, %16
  %23 = and i32 %0, 16
  %.not23 = icmp eq i32 %23, 0
  br i1 %.not23, label %28, label %24

24:                                               ; preds = %22
  %25 = load i8, ptr @slurm_bb_flags2str.bb_str, align 16
  %.not24 = icmp eq i8 %25, 0
  br i1 %.not24, label %27, label %26

26:                                               ; preds = %24
  %strlen25 = tail call i64 @strlen(ptr nonnull dereferenceable(1) @slurm_bb_flags2str.bb_str)
  %endptr26 = getelementptr inbounds i8, ptr @slurm_bb_flags2str.bb_str, i64 %strlen25
  store i16 44, ptr %endptr26, align 1
  br label %27

27:                                               ; preds = %26, %24
  %strlen27 = tail call i64 @strlen(ptr nonnull dereferenceable(1) @slurm_bb_flags2str.bb_str)
  %endptr28 = getelementptr inbounds i8, ptr @slurm_bb_flags2str.bb_str, i64 %strlen27
  tail call void @llvm.memcpy.p0.p0.i64(ptr noundef nonnull align 1 dereferenceable(16) %endptr28, ptr noundef nonnull align 1 dereferenceable(16) @.str.421, i64 16, i1 false)
  br label %28

28:                                               ; preds = %27, %22
  ret ptr @slurm_bb_flags2str.bb_str
}